; ModuleID = '45/578.c'
source_filename = "45/578.c"
target datalayout = "e-m:e-p270:32:32-p271:32:32-p272:64:64-i64:64-f80:128-n8:16:32:64-S128"
target triple = "x86_64-pc-linux-gnu"

@.str = private unnamed_addr constant [6 x i8] c"%s %s\00", align 1
@.str.1 = private unnamed_addr constant [3 x i8] c"%d\00", align 1

; Function Attrs: noinline nounwind uwtable
define dso_local void @main() #0 {
  %1 = alloca [300 x i8], align 16
  %2 = alloca [100 x i8], align 16
  %3 = alloca i8*, align 8
  %4 = alloca i8*, align 8
  %5 = alloca i32, align 4
  store i32 0, i32* %5, align 4
  %6 = getelementptr inbounds [100 x i8], [100 x i8]* %2, i64 0, i64 0
  %7 = getelementptr inbounds [300 x i8], [300 x i8]* %1, i64 0, i64 0
  %8 = call i32 (i8*, ...) @__isoc99_scanf(i8* getelementptr inbounds ([6 x i8], [6 x i8]* @.str, i64 0, i64 0), i8* %6, i8* %7)
  %9 = getelementptr inbounds [300 x i8], [300 x i8]* %1, i64 0, i64 0
  store i8* %9, i8** %3, align 8
  %10 = getelementptr inbounds [100 x i8], [100 x i8]* %2, i64 0, i64 0
  store i8* %10, i8** %4, align 8
  br label %11

11:                                               ; preds = %58, %0
  %12 = load i8*, i8** %3, align 8
  %13 = getelementptr inbounds [300 x i8], [300 x i8]* %1, i64 0, i64 0
  %14 = getelementptr inbounds [300 x i8], [300 x i8]* %1, i64 0, i64 0
  %15 = call i64 @strlen(i8* %14) #3
  %16 = getelementptr inbounds i8, i8* %13, i64 %15
  %17 = icmp ult i8* %12, %16
  br i1 %17, label %18, label %61

18:                                               ; preds = %11
  store i32 0, i32* %5, align 4
  br label %19

19:                                               ; preds = %41, %18
  %20 = load i32, i32* %5, align 4
  %21 = sext i32 %20 to i64
  %22 = getelementptr inbounds [100 x i8], [100 x i8]* %2, i64 0, i64 0
  %23 = call i64 @strlen(i8* %22) #3
  %24 = icmp ult i64 %21, %23
  br i1 %24, label %25, label %44

25:                                               ; preds = %19
  %26 = load i8*, i8** %3, align 8
  %27 = load i32, i32* %5, align 4
  %28 = sext i32 %27 to i64
  %29 = getelementptr inbounds i8, i8* %26, i64 %28
  %30 = load i8, i8* %29, align 1
  %31 = sext i8 %30 to i32
  %32 = load i8*, i8** %4, align 8
  %33 = load i32, i32* %5, align 4
  %34 = sext i32 %33 to i64
  %35 = getelementptr inbounds i8, i8* %32, i64 %34
  %36 = load i8, i8* %35, align 1
  %37 = sext i8 %36 to i32
  %38 = icmp ne i32 %31, %37
  br i1 %38, label %39, label %40

39:                                               ; preds = %25
  br label %44

40:                                               ; preds = %25
  br label %41

41:                                               ; preds = %40
  %42 = load i32, i32* %5, align 4
  %43 = add nsw i32 %42, 1
  store i32 %43, i32* %5, align 4
  br label %19

44:                                               ; preds = %39, %19
  %45 = load i32, i32* %5, align 4
  %46 = sext i32 %45 to i64
  %47 = getelementptr inbounds [100 x i8], [100 x i8]* %2, i64 0, i64 0
  %48 = call i64 @strlen(i8* %47) #3
  %49 = icmp eq i64 %46, %48
  br i1 %49, label %50, label %57

50:                                               ; preds = %44
  %51 = load i8*, i8** %3, align 8
  %52 = getelementptr inbounds [300 x i8], [300 x i8]* %1, i64 0, i64 0
  %53 = ptrtoint i8* %51 to i64
  %54 = ptrtoint i8* %52 to i64
  %55 = sub i64 %53, %54
  %56 = call i32 (i8*, ...) @printf(i8* getelementptr inbounds ([3 x i8], [3 x i8]* @.str.1, i64 0, i64 0), i64 %55)
  br label %61

57:                                               ; preds = %44
  br label %58

58:                                               ; preds = %57
  %59 = load i8*, i8** %3, align 8
  %60 = getelementptr inbounds i8, i8* %59, i32 1
  store i8* %60, i8** %3, align 8
  br label %11

61:                                               ; preds = %50, %11
  ret void
}

declare dso_local i32 @__isoc99_scanf(i8*, ...) #1

; Function Attrs: nounwind readonly
declare dso_local i64 @strlen(i8*) #2

declare dso_local i32 @printf(i8*, ...) #1


!llvm.module.flags = !{!0}
!llvm.ident = !{!1}

!0 = !{i32 1, !"wchar_size", i32 4}
!1 = !{!"clang version 10.0.0-4ubuntu1 "}
